; Function Attrs: mustprogress uwtable
define hidden noundef nonnull align 4 dereferenceable(16) ptr @_ZNK7nanogui6Canvas16background_colorEv(ptr nocapture noundef nonnull readonly align 8 dereferenceable(173) %0) local_unnamed_addr #6 align 2 {
  %2 = getelementptr inbounds i8, ptr %0, i64 144
  %3 = load ptr, ptr %2, align 8
  %4 = getelementptr inbounds i8, ptr %3, i64 48
  %5 = getelementptr inbounds i8, ptr %3, i64 56
  %6 = load ptr, ptr %5, align 8
  %7 = load ptr, ptr %4, align 8
  %.not.i.i.i.not = icmp eq ptr %6, %7
  br i1 %.not.i.i.i.not, label %8, label %_ZNK7nanogui10RenderPass11clear_colorEm.exit

8:                                                ; preds = %1
  tail call void (ptr, ...) @_ZSt24__throw_out_of_range_fmtPKcz(ptr noundef nonnull @.str.3, i64 noundef 0, i64 noundef 0) #14
  unreachable

_ZNK7nanogui10RenderPass11clear_colorEm.exit:     ; preds = %1
  ret ptr %7
}